target datalayout = "e-m:e-p270:32:32-p271:32:32-p272:64:64-i64:64-i128:128-f80:128-n8:16:32:64-S128"
target triple = "x86_64-pc-linux-gnu"

; Function Attrs: inlinehint mustprogress nounwind uwtable
define linkonce_odr noundef zeroext i1 @_ZN6google8protobuf13ascii_isdigitEc(i8 noundef signext %0) #8 comdat {
  %2 = alloca i8, align 1
  store i8 %0, ptr %2, align 1, !tbaa !41
  %3 = load i8, ptr %2, align 1, !tbaa !41
  %4 = sext i8 %3 to i32
  %5 = icmp sle i32 48, %4
  br i1 %5, label %6, label %10

6:                                                ; preds = %1
  %7 = load i8, ptr %2, align 1, !tbaa !41
  %8 = sext i8 %7 to i32
  %9 = icmp sle i32 %8, 57
  br label %10

10:                                               ; preds = %6, %1
  %11 = phi i1 [ false, %1 ], [ %9, %6 ]
  ret i1 %11
}

; Function Attrs: mustprogress nounwind uwtable
define internal noundef ptr @_ZN6google8protobuf8internal12_GLOBAL__N_110ParseNanosEPKcPi(ptr noundef %0, ptr noundef %1) #6 {
  %3 = alloca ptr, align 8
  %4 = alloca ptr, align 8
  %5 = alloca ptr, align 8
  %6 = alloca i32, align 4
  %7 = alloca i32, align 4
  store ptr %0, ptr %4, align 8, !tbaa !39
  store ptr %1, ptr %5, align 8, !tbaa !33
  %8 = load ptr, ptr %4, align 8, !tbaa !39
  %9 = load i8, ptr %8, align 1, !tbaa !41
  %10 = call noundef zeroext i1 @_ZN6google8protobuf13ascii_isdigitEc(i8 noundef signext %9)
  br i1 %10, label %12, label %11

11:                                               ; preds = %2
  store ptr null, ptr %3, align 8
  br label %46

12:                                               ; preds = %2
  call void @llvm.lifetime.start.p0(i64 4, ptr %6) #3
  store i32 0, ptr %6, align 4, !tbaa !10
  call void @llvm.lifetime.start.p0(i64 4, ptr %7) #3
  store i32 0, ptr %7, align 4, !tbaa !10
  br label %13

13:                                               ; preds = %28, %12
  %14 = load ptr, ptr %4, align 8, !tbaa !39
  %15 = load i8, ptr %14, align 1, !tbaa !41
  %16 = call noundef zeroext i1 @_ZN6google8protobuf13ascii_isdigitEc(i8 noundef signext %15)
  br i1 %16, label %17, label %33

17:                                               ; preds = %13
  %18 = load i32, ptr %7, align 4, !tbaa !10
  %19 = icmp slt i32 %18, 9
  br i1 %19, label %20, label %28

20:                                               ; preds = %17
  %21 = load i32, ptr %6, align 4, !tbaa !10
  %22 = mul nsw i32 %21, 10
  %23 = load ptr, ptr %4, align 8, !tbaa !39
  %24 = load i8, ptr %23, align 1, !tbaa !41
  %25 = sext i8 %24 to i32
  %26 = add nsw i32 %22, %25
  %27 = sub nsw i32 %26, 48
  store i32 %27, ptr %6, align 4, !tbaa !10
  br label %28

28:                                               ; preds = %20, %17
  %29 = load i32, ptr %7, align 4, !tbaa !10
  %30 = add nsw i32 %29, 1
  store i32 %30, ptr %7, align 4, !tbaa !10
  %31 = load ptr, ptr %4, align 8, !tbaa !39
  %32 = getelementptr inbounds nuw i8, ptr %31, i32 1
  store ptr %32, ptr %4, align 8, !tbaa !39
  br label %13, !llvm.loop !43

33:                                               ; preds = %13
  br label %34

34:                                               ; preds = %37, %33
  %35 = load i32, ptr %7, align 4, !tbaa !10
  %36 = icmp slt i32 %35, 9
  br i1 %36, label %37, label %42

37:                                               ; preds = %34
  %38 = load i32, ptr %6, align 4, !tbaa !10
  %39 = mul nsw i32 %38, 10
  store i32 %39, ptr %6, align 4, !tbaa !10
  %40 = load i32, ptr %7, align 4, !tbaa !10
  %41 = add nsw i32 %40, 1
  store i32 %41, ptr %7, align 4, !tbaa !10
  br label %34, !llvm.loop !44

42:                                               ; preds = %34
  %43 = load i32, ptr %6, align 4, !tbaa !10
  %44 = load ptr, ptr %5, align 8, !tbaa !33
  store i32 %43, ptr %44, align 4, !tbaa !10
  %45 = load ptr, ptr %4, align 8, !tbaa !39
  store ptr %45, ptr %3, align 8
  call void @llvm.lifetime.end.p0(i64 4, ptr %7) #3
  call void @llvm.lifetime.end.p0(i64 4, ptr %6) #3
  br label %46

46:                                               ; preds = %42, %11
  %47 = load ptr, ptr %3, align 8
  ret ptr %47
}