; Function Attrs: mustprogress nofree norecurse nosync nounwind memory(argmem: readwrite) uwtable
define internal fastcc noundef ptr @_ZN6google8protobuf8internal12_GLOBAL__N_110ParseNanosEPKcPi(ptr noundef nonnull readonly %0, ptr noundef writeonly captures(none) %1) unnamed_addr #5 {
  %3 = load i8, ptr %0, align 1, !tbaa !30
  %4 = add i8 %3, -48
  %5 = icmp ult i8 %4, 10
  br i1 %5, label %.lr.ph, label %20

.preheader:                                       ; preds = %.lr.ph
  %6 = icmp samesign ult i32 %.020, 8
  br i1 %6, label %.lr.ph25, label %._crit_edge

.lr.ph:                                           ; preds = %2, %.lr.ph
  %7 = phi i8 [ %15, %.lr.ph ], [ %3, %2 ]
  %.020 = phi i32 [ %13, %.lr.ph ], [ 0, %2 ]
  %.01319 = phi i32 [ %.114, %.lr.ph ], [ 0, %2 ]
  %.01618 = phi ptr [ %14, %.lr.ph ], [ %0, %2 ]
  %8 = icmp samesign ult i32 %.020, 9
  %9 = mul nsw i32 %.01319, 10
  %10 = zext nneg i8 %7 to i32
  %11 = add i32 %9, -48
  %12 = add i32 %11, %10
  %.114 = select i1 %8, i32 %12, i32 %.01319
  %13 = add nuw nsw i32 %.020, 1
  %14 = getelementptr inbounds nuw i8, ptr %.01618, i64 1
  %15 = load i8, ptr %14, align 1, !tbaa !30
  %16 = add i8 %15, -48
  %17 = icmp ult i8 %16, 10
  br i1 %17, label %.lr.ph, label %.preheader, !llvm.loop !39

.lr.ph25:                                         ; preds = %.preheader, %.lr.ph25
  %.124 = phi i32 [ %19, %.lr.ph25 ], [ %13, %.preheader ]
  %.223 = phi i32 [ %18, %.lr.ph25 ], [ %.114, %.preheader ]
  %18 = mul nsw i32 %.223, 10
  %19 = add i32 %.124, 1
  %exitcond.not = icmp eq i32 %19, 9
  br i1 %exitcond.not, label %._crit_edge, label %.lr.ph25, !llvm.loop !40

._crit_edge:                                      ; preds = %.lr.ph25, %.preheader
  %.2.lcssa = phi i32 [ %.114, %.preheader ], [ %18, %.lr.ph25 ]
  store i32 %.2.lcssa, ptr %1, align 4, !tbaa !7
  br label %20

20:                                               ; preds = %2, %._crit_edge
  %.015 = phi ptr [ %14, %._crit_edge ], [ null, %2 ]
  ret ptr %.015
}